; Function Attrs: nounwind sspstrong uwtable
define internal noundef i32 @mark_key(i64 noundef %0, i64 %1, i64 %2) #0 {
  %4 = icmp eq i64 %0, 0
  %5 = and i64 %0, 7
  %6 = icmp ne i64 %5, 0
  %7 = or i1 %4, %6
  br i1 %7, label %gc_mark_and_pin_internal.exit, label %8

8:                                                ; preds = %3
  %9 = load ptr, ptr @ruby_current_vm_ptr, align 8, !tbaa !62
  %10 = getelementptr inbounds nuw i8, ptr %9, i64 1304
  %11 = load ptr, ptr %10, align 8, !tbaa !279
  %12 = icmp eq ptr %11, null
  br i1 %12, label %13, label %38, !prof !45

13:                                               ; preds = %8
  %14 = getelementptr inbounds nuw i8, ptr %9, i64 1296
  %15 = load ptr, ptr %14, align 8, !tbaa !63
  %16 = getelementptr i8, ptr %15, i64 20
  %.val.i.i.i = load i16, ptr %16, align 4
  %17 = and i16 %.val.i.i.i, 64
  %.not.i.i.i.i = icmp eq i16 %17, 0
  br i1 %.not.i.i.i.i, label %rb_gc_impl_mark_and_pin.exit.i, label %18, !prof !45

18:                                               ; preds = %13
  %19 = and i16 %.val.i.i.i, 32
  %.not9.i.i.i.i = icmp eq i16 %19, 0
  br i1 %.not9.i.i.i.i, label %rb_gc_impl_mark_and_pin.exit.i, label %20, !prof !79

20:                                               ; preds = %18
  %21 = and i64 %0, -65536
  %22 = inttoptr i64 %21 to ptr
  %23 = load ptr, ptr %22, align 65536, !tbaa !186
  %24 = getelementptr inbounds nuw i8, ptr %23, i64 1112
  %.lhs.trunc.i.i.i.i.i = trunc i64 %0 to i16
  %25 = udiv i16 %.lhs.trunc.i.i.i.i.i, 40
  %26 = udiv i16 %.lhs.trunc.i.i.i.i.i, 2560
  %.zext2.i.i.i.i.i = zext nneg i16 %26 to i64
  %27 = getelementptr i64, ptr %24, i64 %.zext2.i.i.i.i.i
  %28 = load i64, ptr %27, align 8, !tbaa !93
  %29 = and i16 %25, 63
  %30 = zext nneg i16 %29 to i64
  %31 = shl nuw i64 1, %30
  %32 = and i64 %28, %31
  %.not10.i.i.i.i = icmp eq i64 %32, 0
  br i1 %.not10.i.i.i.i, label %33, label %rb_gc_impl_mark_and_pin.exit.i

33:                                               ; preds = %20
  %34 = getelementptr inbounds nuw i8, ptr %23, i64 8
  %35 = load i16, ptr %34, align 8, !tbaa !285
  %36 = add i16 %35, 1
  store i16 %36, ptr %34, align 8, !tbaa !285
  %37 = or i64 %28, %31
  store i64 %37, ptr %27, align 8, !tbaa !93
  br label %rb_gc_impl_mark_and_pin.exit.i

rb_gc_impl_mark_and_pin.exit.i:                   ; preds = %33, %20, %18, %13
  tail call fastcc void @gc_mark(ptr noundef nonnull %15, i64 noundef %0)
  br label %gc_mark_and_pin_internal.exit

38:                                               ; preds = %8
  store ptr null, ptr %10, align 8, !tbaa !279
  %39 = getelementptr inbounds nuw i8, ptr %11, i64 8
  %40 = load ptr, ptr %39, align 8, !tbaa !280
  %41 = load ptr, ptr %11, align 8, !tbaa !282
  tail call void %40(i64 noundef %0, ptr noundef %41) #7
  store ptr %11, ptr %10, align 8, !tbaa !279
  br label %gc_mark_and_pin_internal.exit

gc_mark_and_pin_internal.exit:                    ; preds = %3, %rb_gc_impl_mark_and_pin.exit.i, %38
  ret i32 0
}